; Function Attrs: mustprogress uwtable
define hidden void @_ZN3smt9theory_pb13watch_literalEN3sat7literalEPNS0_4ineqE(ptr noundef nonnull align 8 dereferenceable(968) %0, i32 %1, ptr noundef %2) local_unnamed_addr #4 align 2 {
  %4 = lshr i32 %1, 1
  %5 = getelementptr inbounds nuw i8, ptr %0, i64 64
  %6 = load ptr, ptr %5, align 8, !tbaa !700
  %7 = icmp eq ptr %6, null
  br i1 %7, label %thread-pre-split.i.i.preheader, label %_ZNK6vectorIN3smt9theory_pb8var_infoELb0EjE4sizeEv.exit.i

_ZNK6vectorIN3smt9theory_pb8var_infoELb0EjE4sizeEv.exit.i: ; preds = %3
  %8 = getelementptr inbounds i8, ptr %6, i64 -4
  %9 = load i32, ptr %8, align 4, !tbaa !9
  %.not.i = icmp ugt i32 %9, %4
  br i1 %.not.i, label %_ZN3smt9theory_pb10init_watchEj.exit, label %thread-pre-split.i.i.preheader

thread-pre-split.i.i.preheader:                   ; preds = %_ZNK6vectorIN3smt9theory_pb8var_infoELb0EjE4sizeEv.exit.i, %3
  %.ph = phi ptr [ null, %3 ], [ %6, %_ZNK6vectorIN3smt9theory_pb8var_infoELb0EjE4sizeEv.exit.i ]
  %.0.i16.i.i.ph = phi i32 [ 0, %3 ], [ %9, %_ZNK6vectorIN3smt9theory_pb8var_infoELb0EjE4sizeEv.exit.i ]
  %.ph11 = add nuw i32 %4, 100
  br label %thread-pre-split.i.i

thread-pre-split.i.i:                             ; preds = %thread-pre-split.i.i.preheader, %_ZNK6vectorIN3smt9theory_pb8var_infoELb0EjE8capacityEv.exit.thread.i.i
  %10 = phi ptr [ %.pr.pre.i.i, %_ZNK6vectorIN3smt9theory_pb8var_infoELb0EjE8capacityEv.exit.thread.i.i ], [ %.ph, %thread-pre-split.i.i.preheader ]
  %11 = icmp eq ptr %10, null
  br i1 %11, label %_ZNK6vectorIN3smt9theory_pb8var_infoELb0EjE8capacityEv.exit.thread.i.i, label %_ZNK6vectorIN3smt9theory_pb8var_infoELb0EjE8capacityEv.exit.i.i

_ZNK6vectorIN3smt9theory_pb8var_infoELb0EjE8capacityEv.exit.i.i: ; preds = %thread-pre-split.i.i
  %12 = getelementptr inbounds i8, ptr %10, i64 -8
  %13 = load i32, ptr %12, align 4, !tbaa !9
  %14 = icmp ugt i32 %.ph11, %13
  br i1 %14, label %_ZNK6vectorIN3smt9theory_pb8var_infoELb0EjE8capacityEv.exit.thread.i.i, label %15

_ZNK6vectorIN3smt9theory_pb8var_infoELb0EjE8capacityEv.exit.thread.i.i: ; preds = %_ZNK6vectorIN3smt9theory_pb8var_infoELb0EjE8capacityEv.exit.i.i, %thread-pre-split.i.i
  tail call void @_ZN6vectorIN3smt9theory_pb8var_infoELb0EjE13expand_vectorEv(ptr noundef nonnull align 8 dereferenceable(8) %5)
  %.pr.pre.i.i = load ptr, ptr %5, align 8, !tbaa !700
  br label %thread-pre-split.i.i, !llvm.loop !701

15:                                               ; preds = %_ZNK6vectorIN3smt9theory_pb8var_infoELb0EjE8capacityEv.exit.i.i
  %16 = getelementptr inbounds i8, ptr %10, i64 -4
  store i32 %.ph11, ptr %16, align 4, !tbaa !9
  %.not1218.i.i = icmp eq i32 %.0.i16.i.i.ph, %.ph11
  br i1 %.not1218.i.i, label %_ZN3smt9theory_pb10init_watchEj.exit, label %.lr.ph.preheader.i.i

.lr.ph.preheader.i.i:                             ; preds = %15
  %17 = zext i32 %.ph11 to i64
  %18 = zext i32 %.0.i16.i.i.ph to i64
  %19 = getelementptr %"struct.smt::theory_pb::var_info", ptr %10, i64 %18
  %reass.add.i = sub nsw i64 %17, %18
  %reass.add.fr.i = freeze i64 %reass.add.i
  %reass.mul.i = mul i64 %reass.add.fr.i, 48
  %20 = add i64 %reass.mul.i, -48
  %21 = urem i64 %20, 48
  %22 = sub i64 %reass.mul.i, %21
  tail call void @llvm.memset.p0.i64(ptr align 8 %19, i8 0, i64 %22, i1 false)
  %.pre = load ptr, ptr %5, align 8, !tbaa !700
  br label %_ZN3smt9theory_pb10init_watchEj.exit

_ZN3smt9theory_pb10init_watchEj.exit:             ; preds = %_ZNK6vectorIN3smt9theory_pb8var_infoELb0EjE4sizeEv.exit.i, %15, %.lr.ph.preheader.i.i
  %23 = phi ptr [ %6, %_ZNK6vectorIN3smt9theory_pb8var_infoELb0EjE4sizeEv.exit.i ], [ %10, %15 ], [ %.pre, %.lr.ph.preheader.i.i ]
  %24 = zext nneg i32 %4 to i64
  %25 = getelementptr inbounds nuw %"struct.smt::theory_pb::var_info", ptr %23, i64 %24
  %26 = and i32 %1, 1
  %27 = zext nneg i32 %26 to i64
  %28 = getelementptr inbounds nuw [2 x ptr], ptr %25, i64 0, i64 %27
  %29 = load ptr, ptr %28, align 8, !tbaa !787
  %30 = icmp eq ptr %29, null
  br i1 %30, label %.thread, label %35

.thread:                                          ; preds = %_ZN3smt9theory_pb10init_watchEj.exit
  %31 = tail call noalias noundef ptr @_ZN6memory8allocateEm(i64 noundef 8)
  store ptr null, ptr %31, align 8, !tbaa !782
  %32 = load ptr, ptr %5, align 8, !tbaa !700
  %33 = getelementptr inbounds nuw %"struct.smt::theory_pb::var_info", ptr %32, i64 %24
  %34 = getelementptr inbounds nuw [2 x ptr], ptr %33, i64 0, i64 %27
  store ptr %31, ptr %34, align 8, !tbaa !787
  br label %43

35:                                               ; preds = %_ZN3smt9theory_pb10init_watchEj.exit
  %.pr = load ptr, ptr %29, align 8, !tbaa !782
  %36 = icmp eq ptr %.pr, null
  br i1 %36, label %43, label %37

37:                                               ; preds = %35
  %38 = getelementptr inbounds i8, ptr %.pr, i64 -4
  %39 = load i32, ptr %38, align 4, !tbaa !9
  %40 = getelementptr inbounds i8, ptr %.pr, i64 -8
  %41 = load i32, ptr %40, align 4, !tbaa !9
  %42 = icmp eq i32 %39, %41
  br i1 %42, label %43, label %_ZN6vectorIPN3smt9theory_pb4ineqELb0EjE9push_backERKS3_.exit

43:                                               ; preds = %.thread, %37, %35
  %.010 = phi ptr [ %31, %.thread ], [ %29, %37 ], [ %29, %35 ]
  tail call void @_ZN6vectorIPN3smt9theory_pb4ineqELb0EjE13expand_vectorEv(ptr noundef nonnull align 8 dereferenceable(8) %.010)
  %.pre.i = load ptr, ptr %.010, align 8, !tbaa !782
  %.phi.trans.insert.i = getelementptr inbounds i8, ptr %.pre.i, i64 -4
  %.pre2.i = load i32, ptr %.phi.trans.insert.i, align 4, !tbaa !9
  br label %_ZN6vectorIPN3smt9theory_pb4ineqELb0EjE9push_backERKS3_.exit

_ZN6vectorIPN3smt9theory_pb4ineqELb0EjE9push_backERKS3_.exit: ; preds = %37, %43
  %44 = phi i32 [ %.pre2.i, %43 ], [ %39, %37 ]
  %45 = phi ptr [ %.pre.i, %43 ], [ %.pr, %37 ]
  %46 = getelementptr inbounds i8, ptr %45, i64 -4
  %47 = zext i32 %44 to i64
  %48 = getelementptr inbounds nuw ptr, ptr %45, i64 %47
  store ptr %2, ptr %48, align 8, !tbaa !785
  %49 = add i32 %44, 1
  store i32 %49, ptr %46, align 4, !tbaa !9
  ret void
}